; Function Attrs: nounwind uwtable
define i32 @nx_open_from_tcb(ptr noundef %0, ptr noundef %1, i32 noundef %2, ...) local_unnamed_addr #0 {
  %4 = alloca %struct.file, align 8
  %5 = alloca [1 x %struct.__va_list_tag], align 16
  call void @llvm.va_start.p0(ptr nonnull %5)
  call void @llvm.lifetime.start.p0(i64 24, ptr nonnull %4)
  %6 = call i32 @getumask() #6
  %7 = call fastcc i32 @file_vopen(ptr noundef nonnull %4, ptr noundef %1, i32 noundef %2, i32 noundef %6, ptr noundef nonnull %5)
  %8 = icmp slt i32 %7, 0
  br i1 %8, label %nx_vopen.exit, label %9

9:                                                ; preds = %3
  %10 = getelementptr inbounds nuw i8, ptr %4, i64 8
  %11 = load ptr, ptr %10, align 8
  %12 = load i32, ptr %4, align 8
  %13 = getelementptr inbounds nuw i8, ptr %4, i64 4
  %14 = load i32, ptr %13, align 4
  %15 = getelementptr inbounds nuw i8, ptr %4, i64 16
  %16 = load ptr, ptr %15, align 8
  %17 = call i32 @file_allocate_from_tcb(ptr noundef %0, ptr noundef %11, i32 noundef %12, i32 noundef %14, ptr noundef %16, i32 noundef 0, i1 noundef zeroext false) #6
  %18 = icmp slt i32 %17, 0
  br i1 %18, label %19, label %nx_vopen.exit

19:                                               ; preds = %9
  %20 = call i32 @file_close(ptr noundef nonnull %4) #6
  br label %nx_vopen.exit

nx_vopen.exit:                                    ; preds = %3, %9, %19
  %.0.i = phi i32 [ %7, %3 ], [ %17, %19 ], [ %17, %9 ]
  call void @llvm.lifetime.end.p0(i64 24, ptr nonnull %4)
  call void @llvm.va_end.p0(ptr nonnull %5)
  ret i32 %.0.i
}